(dp1
S'Ethan Pi'
p2
(dp3
S'colors'
p4
(lp5
S'Red'
p6
aS'Green'
p7
aS'Blue'
p8
asS'address'
p9
S'10.32.64.148'
p10
ssS'Water (red) (left)'
p11
(dp12
S'colors'
p13
(lp14
S'Red'
p15
asS'address'
p16
S'10.32.64.135'
p17
ssS'Red / green / blue / water'
p18
(dp19
S'colors'
p20
(lp21
S'Red'
p22
aS'Green'
p23
aS'Blue'
p24
asS'address'
p25
S'10.32.64.69'
p26
ssS'Flik'
p27
(dp28
S'colors'
p29
(lp30
sS'address'
p31
S'10.32.64.168'
p32
ssS'Blue Two'
p33
(dp34
g20
(lp35
g22
ag23
ag24
asg25
S'10.32.64.81'
p36
ssS'Green / red water'
p37
(dp38
g20
(lp39
g22
ag23
asg25
S'10.32.64.180'
p40
ssS'Atta'
p41
(dp42
S'colors'
p43
(lp44
S'Red'
p45
aS'Green'
p46
aS'Blue'
p47
asS'address'
p48
S'10.32.64.135'
p49
ssS'Courtship Team'
p50
(dp51
S'colors'
p52
(lp53
sS'address'
p54
S'10.32.64.54'
p55
ssS'Green / red'
p56
(dp57
g20
(lp58
g22
ag23
asg25
S'10.32.64.200'
p59
ssS'Heimlich'
p60
(dp61
S'colors'
p62
(lp63
S'Red'
p64
aS'Green'
p65
aS'Blue'
p66
asS'address'
p67
S'10.32.64.44'
p68
ss.