(dp1
S'Water (red) (left)'
p2
(lp3
S'Red'
p4
asS'Green / red'
p5
(lp6
g4
aS'Green'
p7
asS'Many wells'
p8
(lp9
g4
asS'Blue Two'
p10
(lp11
g4
ag7
aS'Blue'
p12
asS'Green / red water'
p13
(lp14
g4
ag7
asS'Red / green / blue / water'
p15
(lp16
g4
ag7
ag12
as.